target datalayout = "e-m:e-p270:32:32-p271:32:32-p272:64:64-i64:64-i128:128-f80:128-n8:16:32:64-S128"
target triple = "x86_64-pc-linux-gnu"

%struct.Gia_IsoMan_t_ = type { ptr, i32, i32, i32, i32, ptr, ptr, ptr, ptr, ptr, ptr, ptr, i64, i64, i64, i64, i64, i64 }
%struct.Vec_Int_t_ = type { i32, i32, ptr }

@.str.13 = private unnamed_addr constant [45 x i8] c"Broke ties in class of size %d at level %d.\0A\00", align 1

; Function Attrs: inlinehint nounwind uwtable
define internal void @Vec_IntShrink(ptr noundef %0, i32 noundef %1) #3 {
  %3 = alloca ptr, align 8
  %4 = alloca i32, align 4
  store ptr %0, ptr %3, align 8, !tbaa !43
  store i32 %1, ptr %4, align 4, !tbaa !42
  %5 = load i32, ptr %4, align 4, !tbaa !42
  %6 = load ptr, ptr %3, align 8, !tbaa !43
  %7 = getelementptr inbounds nuw %struct.Vec_Int_t_, ptr %6, i32 0, i32 1
  store i32 %5, ptr %7, align 4, !tbaa !44
  ret void
}

; Function Attrs: inlinehint nounwind uwtable
define internal i32 @Gia_IsoGetItem(ptr noundef %0, i32 noundef %1) #3 {
  %3 = alloca ptr, align 8
  %4 = alloca i32, align 4
  store ptr %0, ptr %3, align 8, !tbaa !8
  store i32 %1, ptr %4, align 4, !tbaa !42
  %5 = load ptr, ptr %3, align 8, !tbaa !8
  %6 = getelementptr inbounds nuw %struct.Gia_IsoMan_t_, ptr %5, i32 0, i32 7
  %7 = load ptr, ptr %6, align 8, !tbaa !22
  %8 = load i32, ptr %4, align 4, !tbaa !42
  %9 = sext i32 %8 to i64
  %10 = getelementptr inbounds i64, ptr %7, i64 %9
  %11 = load i64, ptr %10, align 8, !tbaa !55
  %12 = lshr i64 %11, 32
  %13 = trunc i64 %12 to i32
  ret i32 %13
}

; Function Attrs: inlinehint nounwind uwtable
define internal i32 @Vec_IntEntry(ptr noundef %0, i32 noundef %1) #3 {
  %3 = alloca ptr, align 8
  %4 = alloca i32, align 4
  store ptr %0, ptr %3, align 8, !tbaa !43
  store i32 %1, ptr %4, align 4, !tbaa !42
  %5 = load ptr, ptr %3, align 8, !tbaa !43
  %6 = getelementptr inbounds nuw %struct.Vec_Int_t_, ptr %5, i32 0, i32 2
  %7 = load ptr, ptr %6, align 8, !tbaa !46
  %8 = load i32, ptr %4, align 4, !tbaa !42
  %9 = sext i32 %8 to i64
  %10 = getelementptr inbounds i32, ptr %7, i64 %9
  %11 = load i32, ptr %10, align 4, !tbaa !42
  ret i32 %11
}

; Function Attrs: inlinehint nounwind uwtable
define internal i32 @Vec_IntSize(ptr noundef %0) #3 {
  %2 = alloca ptr, align 8
  store ptr %0, ptr %2, align 8, !tbaa !43
  %3 = load ptr, ptr %2, align 8, !tbaa !43
  %4 = getelementptr inbounds nuw %struct.Vec_Int_t_, ptr %3, i32 0, i32 1
  %5 = load i32, ptr %4, align 4, !tbaa !44
  ret i32 %5
}

; Function Attrs: nounwind uwtable
define void @Gia_IsoAssignOneClass(ptr noundef %0, i32 noundef %1) #0 {
  %3 = alloca ptr, align 8
  %4 = alloca i32, align 4
  %5 = alloca i32, align 4
  %6 = alloca i32, align 4
  %7 = alloca i32, align 4
  %8 = alloca i32, align 4
  %9 = alloca i32, align 4
  %10 = alloca i32, align 4
  store ptr %0, ptr %3, align 8, !tbaa !8
  store i32 %1, ptr %4, align 4, !tbaa !42
  call void @llvm.lifetime.start.p0(i64 4, ptr %5) #12
  call void @llvm.lifetime.start.p0(i64 4, ptr %6) #12
  call void @llvm.lifetime.start.p0(i64 4, ptr %7) #12
  call void @llvm.lifetime.start.p0(i64 4, ptr %8) #12
  call void @llvm.lifetime.start.p0(i64 4, ptr %9) #12
  call void @llvm.lifetime.start.p0(i64 4, ptr %10) #12
  %11 = load ptr, ptr %3, align 8, !tbaa !8
  %12 = getelementptr inbounds nuw %struct.Gia_IsoMan_t_, ptr %11, i32 0, i32 10
  %13 = load ptr, ptr %12, align 8, !tbaa !23
  %14 = load ptr, ptr %3, align 8, !tbaa !8
  %15 = getelementptr inbounds nuw %struct.Gia_IsoMan_t_, ptr %14, i32 0, i32 10
  %16 = load ptr, ptr %15, align 8, !tbaa !23
  %17 = call i32 @Vec_IntSize(ptr noundef %16)
  %18 = sub nsw i32 %17, 2
  %19 = call i32 @Vec_IntEntry(ptr noundef %13, i32 noundef %18)
  store i32 %19, ptr %7, align 4, !tbaa !42
  %20 = load ptr, ptr %3, align 8, !tbaa !8
  %21 = getelementptr inbounds nuw %struct.Gia_IsoMan_t_, ptr %20, i32 0, i32 10
  %22 = load ptr, ptr %21, align 8, !tbaa !23
  %23 = call i32 @Vec_IntSize(ptr noundef %22)
  %24 = sub nsw i32 %23, 2
  store i32 %24, ptr %5, align 4, !tbaa !42
  br label %25

25:                                               ; preds = %55, %2
  %26 = load i32, ptr %5, align 4, !tbaa !42
  %27 = icmp sge i32 %26, 0
  br i1 %27, label %28, label %58

28:                                               ; preds = %25
  %29 = load ptr, ptr %3, align 8, !tbaa !8
  %30 = getelementptr inbounds nuw %struct.Gia_IsoMan_t_, ptr %29, i32 0, i32 10
  %31 = load ptr, ptr %30, align 8, !tbaa !23
  %32 = load i32, ptr %5, align 4, !tbaa !42
  %33 = call i32 @Vec_IntEntry(ptr noundef %31, i32 noundef %32)
  store i32 %33, ptr %8, align 4, !tbaa !42
  %34 = load ptr, ptr %3, align 8, !tbaa !8
  %35 = getelementptr inbounds nuw %struct.Gia_IsoMan_t_, ptr %34, i32 0, i32 5
  %36 = load ptr, ptr %35, align 8, !tbaa !20
  %37 = load ptr, ptr %3, align 8, !tbaa !8
  %38 = load i32, ptr %8, align 4, !tbaa !42
  %39 = call i32 @Gia_IsoGetItem(ptr noundef %37, i32 noundef %38)
  %40 = zext i32 %39 to i64
  %41 = getelementptr inbounds nuw i32, ptr %36, i64 %40
  %42 = load i32, ptr %41, align 4, !tbaa !42
  %43 = load ptr, ptr %3, align 8, !tbaa !8
  %44 = getelementptr inbounds nuw %struct.Gia_IsoMan_t_, ptr %43, i32 0, i32 5
  %45 = load ptr, ptr %44, align 8, !tbaa !20
  %46 = load ptr, ptr %3, align 8, !tbaa !8
  %47 = load i32, ptr %7, align 4, !tbaa !42
  %48 = call i32 @Gia_IsoGetItem(ptr noundef %46, i32 noundef %47)
  %49 = zext i32 %48 to i64
  %50 = getelementptr inbounds nuw i32, ptr %45, i64 %49
  %51 = load i32, ptr %50, align 4, !tbaa !42
  %52 = icmp ne i32 %42, %51
  br i1 %52, label %53, label %54

53:                                               ; preds = %28
  br label %58

54:                                               ; preds = %28
  br label %55

55:                                               ; preds = %54
  %56 = load i32, ptr %5, align 4, !tbaa !42
  %57 = sub nsw i32 %56, 2
  store i32 %57, ptr %5, align 4, !tbaa !42
  br label %25, !llvm.loop !99

58:                                               ; preds = %53, %25
  %59 = load i32, ptr %5, align 4, !tbaa !42
  %60 = add nsw i32 %59, 2
  store i32 %60, ptr %5, align 4, !tbaa !42
  %61 = load i32, ptr %5, align 4, !tbaa !42
  store i32 %61, ptr %10, align 4, !tbaa !42
  br label %62

62:                                               ; preds = %127, %58
  %63 = load i32, ptr %5, align 4, !tbaa !42
  %64 = load ptr, ptr %3, align 8, !tbaa !8
  %65 = getelementptr inbounds nuw %struct.Gia_IsoMan_t_, ptr %64, i32 0, i32 10
  %66 = load ptr, ptr %65, align 8, !tbaa !23
  %67 = call i32 @Vec_IntSize(ptr noundef %66)
  %68 = icmp slt i32 %63, %67
  br i1 %68, label %69, label %130

69:                                               ; preds = %62
  %70 = load ptr, ptr %3, align 8, !tbaa !8
  %71 = getelementptr inbounds nuw %struct.Gia_IsoMan_t_, ptr %70, i32 0, i32 10
  %72 = load ptr, ptr %71, align 8, !tbaa !23
  %73 = load i32, ptr %5, align 4, !tbaa !42
  %74 = call i32 @Vec_IntEntry(ptr noundef %72, i32 noundef %73)
  store i32 %74, ptr %8, align 4, !tbaa !42
  %75 = load ptr, ptr %3, align 8, !tbaa !8
  %76 = getelementptr inbounds nuw %struct.Gia_IsoMan_t_, ptr %75, i32 0, i32 10
  %77 = load ptr, ptr %76, align 8, !tbaa !23
  %78 = load i32, ptr %5, align 4, !tbaa !42
  %79 = add nsw i32 %78, 1
  %80 = call i32 @Vec_IntEntry(ptr noundef %77, i32 noundef %79)
  store i32 %80, ptr %9, align 4, !tbaa !42
  store i32 0, ptr %6, align 4, !tbaa !42
  br label %81

81:                                               ; preds = %108, %69
  %82 = load i32, ptr %6, align 4, !tbaa !42
  %83 = load i32, ptr %9, align 4, !tbaa !42
  %84 = icmp slt i32 %82, %83
  br i1 %84, label %85, label %111

85:                                               ; preds = %81
  %86 = load ptr, ptr %3, align 8, !tbaa !8
  %87 = getelementptr inbounds nuw %struct.Gia_IsoMan_t_, ptr %86, i32 0, i32 2
  %88 = load i32, ptr %87, align 4, !tbaa !18
  %89 = add nsw i32 %88, 1
  store i32 %89, ptr %87, align 4, !tbaa !18
  %90 = load ptr, ptr %3, align 8, !tbaa !8
  %91 = getelementptr inbounds nuw %struct.Gia_IsoMan_t_, ptr %90, i32 0, i32 6
  %92 = load ptr, ptr %91, align 8, !tbaa !21
  %93 = load ptr, ptr %3, align 8, !tbaa !8
  %94 = load i32, ptr %8, align 4, !tbaa !42
  %95 = load i32, ptr %6, align 4, !tbaa !42
  %96 = add nsw i32 %94, %95
  %97 = call i32 @Gia_IsoGetItem(ptr noundef %93, i32 noundef %96)
  %98 = zext i32 %97 to i64
  %99 = getelementptr inbounds nuw i32, ptr %92, i64 %98
  store i32 %88, ptr %99, align 4, !tbaa !42
  %100 = load ptr, ptr %3, align 8, !tbaa !8
  %101 = getelementptr inbounds nuw %struct.Gia_IsoMan_t_, ptr %100, i32 0, i32 3
  %102 = load i32, ptr %101, align 8, !tbaa !56
  %103 = add nsw i32 %102, 1
  store i32 %103, ptr %101, align 8, !tbaa !56
  %104 = load ptr, ptr %3, align 8, !tbaa !8
  %105 = getelementptr inbounds nuw %struct.Gia_IsoMan_t_, ptr %104, i32 0, i32 4
  %106 = load i32, ptr %105, align 4, !tbaa !19
  %107 = add nsw i32 %106, -1
  store i32 %107, ptr %105, align 4, !tbaa !19
  br label %108

108:                                              ; preds = %85
  %109 = load i32, ptr %6, align 4, !tbaa !42
  %110 = add nsw i32 %109, 1
  store i32 %110, ptr %6, align 4, !tbaa !42
  br label %81, !llvm.loop !100

111:                                              ; preds = %81
  %112 = load i32, ptr %4, align 4, !tbaa !42
  %113 = icmp ne i32 %112, 0
  br i1 %113, label %114, label %126

114:                                              ; preds = %111
  %115 = load i32, ptr %9, align 4, !tbaa !42
  %116 = load ptr, ptr %3, align 8, !tbaa !8
  %117 = getelementptr inbounds nuw %struct.Gia_IsoMan_t_, ptr %116, i32 0, i32 5
  %118 = load ptr, ptr %117, align 8, !tbaa !20
  %119 = load ptr, ptr %3, align 8, !tbaa !8
  %120 = load i32, ptr %8, align 4, !tbaa !42
  %121 = call i32 @Gia_IsoGetItem(ptr noundef %119, i32 noundef %120)
  %122 = zext i32 %121 to i64
  %123 = getelementptr inbounds nuw i32, ptr %118, i64 %122
  %124 = load i32, ptr %123, align 4, !tbaa !42
  %125 = call i32 (ptr, ...) @printf(ptr noundef @.str.13, i32 noundef %115, i32 noundef %124)
  br label %126

126:                                              ; preds = %114, %111
  br label %127

127:                                              ; preds = %126
  %128 = load i32, ptr %5, align 4, !tbaa !42
  %129 = add nsw i32 %128, 2
  store i32 %129, ptr %5, align 4, !tbaa !42
  br label %62, !llvm.loop !101

130:                                              ; preds = %62
  %131 = load ptr, ptr %3, align 8, !tbaa !8
  %132 = getelementptr inbounds nuw %struct.Gia_IsoMan_t_, ptr %131, i32 0, i32 10
  %133 = load ptr, ptr %132, align 8, !tbaa !23
  %134 = load i32, ptr %10, align 4, !tbaa !42
  call void @Vec_IntShrink(ptr noundef %133, i32 noundef %134)
  call void @llvm.lifetime.end.p0(i64 4, ptr %10) #12
  call void @llvm.lifetime.end.p0(i64 4, ptr %9) #12
  call void @llvm.lifetime.end.p0(i64 4, ptr %8) #12
  call void @llvm.lifetime.end.p0(i64 4, ptr %7) #12
  call void @llvm.lifetime.end.p0(i64 4, ptr %6) #12
  call void @llvm.lifetime.end.p0(i64 4, ptr %5) #12
  ret void
}