; Function Attrs: nofree nounwind uwtable
define void @Gia_IsoAssignOneClass(ptr noundef captures(none) %0, i32 noundef %1) local_unnamed_addr #6 {
  %3 = getelementptr inbounds nuw i8, ptr %0, i64 64
  %4 = load ptr, ptr %3, align 8, !tbaa !40
  %5 = getelementptr i8, ptr %4, i64 4
  %.val42 = load i32, ptr %5, align 4, !tbaa !37
  %6 = getelementptr i8, ptr %4, i64 8
  %.val46 = load ptr, ptr %6, align 8, !tbaa !39
  %7 = sext i32 %.val42 to i64
  %8 = getelementptr i32, ptr %.val46, i64 %7
  %9 = getelementptr i8, ptr %8, i64 -8
  %10 = load i32, ptr %9, align 4, !tbaa !43
  %11 = getelementptr inbounds nuw i8, ptr %0, i64 24
  %12 = getelementptr i8, ptr %0, i64 40
  %13 = sext i32 %10 to i64
  %14 = zext i32 %.val42 to i64
  br label %15

15:                                               ; preds = %18, %2
  %indvars.iv64 = phi i64 [ %indvars.iv.next65, %18 ], [ %7, %2 ]
  %indvars.iv = phi i64 [ %19, %18 ], [ %14, %2 ]
  %16 = trunc nuw i64 %indvars.iv to i32
  %17 = icmp sgt i32 %16, 1
  br i1 %17, label %18, label %34

18:                                               ; preds = %15
  %19 = add nsw i64 %indvars.iv, -2
  %20 = getelementptr inbounds nuw i32, ptr %.val46, i64 %19
  %21 = load i32, ptr %20, align 4, !tbaa !43
  %22 = load ptr, ptr %11, align 8, !tbaa !34
  %.val50 = load ptr, ptr %12, align 8, !tbaa !36
  %23 = sext i32 %21 to i64
  %24 = getelementptr inbounds i64, ptr %.val50, i64 %23
  %25 = load i64, ptr %24, align 8, !tbaa !60
  %26 = lshr i64 %25, 32
  %27 = getelementptr inbounds nuw i32, ptr %22, i64 %26
  %28 = load i32, ptr %27, align 4, !tbaa !43
  %29 = getelementptr inbounds i64, ptr %.val50, i64 %13
  %30 = load i64, ptr %29, align 8, !tbaa !60
  %31 = lshr i64 %30, 32
  %32 = getelementptr inbounds nuw i32, ptr %22, i64 %31
  %33 = load i32, ptr %32, align 4, !tbaa !43
  %.not = icmp eq i32 %28, %33
  %indvars.iv.next65 = add nsw i64 %indvars.iv64, -2
  br i1 %.not, label %15, label %34, !llvm.loop !92

34:                                               ; preds = %18, %15
  %35 = icmp sgt i32 %.val42, %16
  br i1 %35, label %.lr.ph56, label %._crit_edge57

.lr.ph56:                                         ; preds = %34
  %36 = getelementptr inbounds nuw i8, ptr %0, i64 12
  %37 = getelementptr inbounds nuw i8, ptr %0, i64 32
  %38 = getelementptr inbounds nuw i8, ptr %0, i64 16
  %39 = getelementptr inbounds nuw i8, ptr %0, i64 20
  %.not40 = icmp eq i32 %1, 0
  br i1 %.not40, label %.lr.ph56.split.us, label %.lr.ph56.split

.lr.ph56.split.us:                                ; preds = %.lr.ph56, %._crit_edge.us
  %.val.us78 = phi i32 [ %.val.us, %._crit_edge.us ], [ %.val42, %.lr.ph56 ]
  %indvars.iv75 = phi i64 [ %indvars.iv.next76, %._crit_edge.us ], [ %indvars.iv64, %.lr.ph56 ]
  %40 = getelementptr i32, ptr %.val46, i64 %indvars.iv75
  %41 = getelementptr i8, ptr %40, i64 4
  %42 = load i32, ptr %41, align 4, !tbaa !43
  %43 = icmp sgt i32 %42, 0
  br i1 %43, label %.lr.ph.us, label %._crit_edge.us

._crit_edge.us.loopexit:                          ; preds = %46
  %.val.us.pre = load i32, ptr %5, align 4, !tbaa !37
  br label %._crit_edge.us

._crit_edge.us:                                   ; preds = %._crit_edge.us.loopexit, %.lr.ph56.split.us
  %.val.us = phi i32 [ %.val.us.pre, %._crit_edge.us.loopexit ], [ %.val.us78, %.lr.ph56.split.us ]
  %indvars.iv.next76 = add nsw i64 %indvars.iv75, 2
  %44 = sext i32 %.val.us to i64
  %45 = icmp slt i64 %indvars.iv.next76, %44
  br i1 %45, label %.lr.ph56.split.us, label %._crit_edge57, !llvm.loop !93

46:                                               ; preds = %.lr.ph.us, %46
  %indvars.iv69 = phi i64 [ 0, %.lr.ph.us ], [ %indvars.iv.next70, %46 ]
  %47 = load i32, ptr %36, align 4, !tbaa !32
  %48 = add nsw i32 %47, 1
  store i32 %48, ptr %36, align 4, !tbaa !32
  %gep83 = getelementptr i64, ptr %invariant.gep82, i64 %indvars.iv69
  %49 = load i64, ptr %gep83, align 8, !tbaa !60
  %50 = lshr i64 %49, 32
  %51 = getelementptr inbounds nuw i32, ptr %57, i64 %50
  store i32 %47, ptr %51, align 4, !tbaa !43
  %52 = load i32, ptr %38, align 8, !tbaa !49
  %53 = add nsw i32 %52, 1
  store i32 %53, ptr %38, align 8, !tbaa !49
  %54 = load i32, ptr %39, align 4, !tbaa !33
  %55 = add nsw i32 %54, -1
  store i32 %55, ptr %39, align 4, !tbaa !33
  %indvars.iv.next70 = add nuw nsw i64 %indvars.iv69, 1
  %exitcond73.not = icmp eq i64 %indvars.iv.next70, %wide.trip.count72
  br i1 %exitcond73.not, label %._crit_edge.us.loopexit, label %46, !llvm.loop !94

.lr.ph.us:                                        ; preds = %.lr.ph56.split.us
  %56 = load i32, ptr %40, align 4, !tbaa !43
  %57 = load ptr, ptr %37, align 8, !tbaa !35
  %.val48.us = load ptr, ptr %12, align 8, !tbaa !36
  %58 = sext i32 %56 to i64
  %wide.trip.count72 = zext nneg i32 %42 to i64
  %invariant.gep82 = getelementptr i64, ptr %.val48.us, i64 %58
  br label %46

.lr.ph56.split:                                   ; preds = %.lr.ph56, %._crit_edge
  %indvars.iv66 = phi i64 [ %indvars.iv.next67, %._crit_edge ], [ %indvars.iv64, %.lr.ph56 ]
  %59 = phi ptr [ %85, %._crit_edge ], [ %4, %.lr.ph56 ]
  %60 = getelementptr i8, ptr %59, i64 8
  %.val44 = load ptr, ptr %60, align 8, !tbaa !39
  %61 = getelementptr i32, ptr %.val44, i64 %indvars.iv66
  %62 = load i32, ptr %61, align 4, !tbaa !43
  %63 = getelementptr i8, ptr %61, i64 4
  %64 = load i32, ptr %63, align 4, !tbaa !43
  %65 = icmp sgt i32 %64, 0
  %.val47.pre = load ptr, ptr %12, align 8, !tbaa !36
  br i1 %65, label %.lr.ph, label %.lr.ph56.split.._crit_edge_crit_edge

.lr.ph56.split.._crit_edge_crit_edge:             ; preds = %.lr.ph56.split
  %.pre = sext i32 %62 to i64
  br label %._crit_edge

.lr.ph:                                           ; preds = %.lr.ph56.split
  %66 = load ptr, ptr %37, align 8, !tbaa !35
  %67 = sext i32 %62 to i64
  %wide.trip.count = zext nneg i32 %64 to i64
  %invariant.gep = getelementptr i64, ptr %.val47.pre, i64 %67
  br label %68

68:                                               ; preds = %.lr.ph, %68
  %indvars.iv61 = phi i64 [ 0, %.lr.ph ], [ %indvars.iv.next62, %68 ]
  %69 = load i32, ptr %36, align 4, !tbaa !32
  %70 = add nsw i32 %69, 1
  store i32 %70, ptr %36, align 4, !tbaa !32
  %gep = getelementptr i64, ptr %invariant.gep, i64 %indvars.iv61
  %71 = load i64, ptr %gep, align 8, !tbaa !60
  %72 = lshr i64 %71, 32
  %73 = getelementptr inbounds nuw i32, ptr %66, i64 %72
  store i32 %69, ptr %73, align 4, !tbaa !43
  %74 = load i32, ptr %38, align 8, !tbaa !49
  %75 = add nsw i32 %74, 1
  store i32 %75, ptr %38, align 8, !tbaa !49
  %76 = load i32, ptr %39, align 4, !tbaa !33
  %77 = add nsw i32 %76, -1
  store i32 %77, ptr %39, align 4, !tbaa !33
  %indvars.iv.next62 = add nuw nsw i64 %indvars.iv61, 1
  %exitcond.not = icmp eq i64 %indvars.iv.next62, %wide.trip.count
  br i1 %exitcond.not, label %._crit_edge, label %68, !llvm.loop !94

._crit_edge:                                      ; preds = %68, %.lr.ph56.split.._crit_edge_crit_edge
  %.pre-phi = phi i64 [ %.pre, %.lr.ph56.split.._crit_edge_crit_edge ], [ %67, %68 ]
  %78 = load ptr, ptr %11, align 8, !tbaa !34
  %79 = getelementptr inbounds i64, ptr %.val47.pre, i64 %.pre-phi
  %80 = load i64, ptr %79, align 8, !tbaa !60
  %81 = lshr i64 %80, 32
  %82 = getelementptr inbounds nuw i32, ptr %78, i64 %81
  %83 = load i32, ptr %82, align 4, !tbaa !43
  %84 = tail call i32 (ptr, ...) @printf(ptr noundef nonnull dereferenceable(1) @.str.13, i32 noundef %64, i32 noundef %83)
  %indvars.iv.next67 = add nsw i64 %indvars.iv66, 2
  %85 = load ptr, ptr %3, align 8, !tbaa !40
  %86 = getelementptr i8, ptr %85, i64 4
  %.val = load i32, ptr %86, align 4, !tbaa !37
  %87 = sext i32 %.val to i64
  %88 = icmp slt i64 %indvars.iv.next67, %87
  br i1 %88, label %.lr.ph56.split, label %._crit_edge57, !llvm.loop !93

._crit_edge57:                                    ; preds = %._crit_edge, %._crit_edge.us, %34
  %.lcssa52 = phi ptr [ %4, %34 ], [ %4, %._crit_edge.us ], [ %85, %._crit_edge ]
  %89 = getelementptr i8, ptr %.lcssa52, i64 4
  store i32 %16, ptr %89, align 4, !tbaa !37
  ret void
}